; Function Attrs: mustprogress nounwind uwtable
define hidden noundef ptr @_ZN20ParallelScavengeHeap20mem_allocate_old_genEm(ptr nocapture nonnull readnone align 8 %0, i64 noundef %1) local_unnamed_addr #0 align 2 {
  %3 = load ptr, ptr @_ZN20ParallelScavengeHeap10_young_genE, align 8
  %4 = getelementptr inbounds i8, ptr %3, i64 32
  %5 = load ptr, ptr %4, align 8
  %6 = getelementptr inbounds i8, ptr %5, i64 48
  %7 = load ptr, ptr %6, align 8
  %8 = getelementptr inbounds i8, ptr %5, i64 32
  %9 = load ptr, ptr %8, align 8
  %10 = ptrtoint ptr %7 to i64
  %11 = ptrtoint ptr %9 to i64
  %12 = sub i64 %10, %11
  %13 = lshr i64 %12, 4
  %14 = icmp ugt i64 %13, %1
  br i1 %14, label %15, label %20

15:                                               ; preds = %2
  %16 = load volatile i8, ptr @_ZN8GCLocker9_needs_gcE, align 1
  %17 = trunc i8 %16 to i1
  br i1 %17, label %_ZN8GCLocker22is_active_and_needs_gcEv.exit, label %_ZN20ParallelScavengeHeap27allocate_old_gen_and_recordEm.exit

_ZN8GCLocker22is_active_and_needs_gcEv.exit:      ; preds = %15
  %18 = load volatile i32, ptr @_ZN8GCLocker15_jni_lock_countE, align 4
  %19 = icmp sgt i32 %18, 0
  br i1 %19, label %20, label %_ZN20ParallelScavengeHeap27allocate_old_gen_and_recordEm.exit

20:                                               ; preds = %_ZN8GCLocker22is_active_and_needs_gcEv.exit, %2
  %21 = load ptr, ptr @_ZN20ParallelScavengeHeap8_old_genE, align 8
  %22 = getelementptr inbounds i8, ptr %21, i64 88
  br label %23

23:                                               ; preds = %_ZN8PSOldGen21cas_allocate_noexpandEm.exit.i.i, %20
  %24 = load ptr, ptr %22, align 8
  %25 = load ptr, ptr %24, align 8
  %26 = getelementptr inbounds i8, ptr %25, i64 120
  %27 = load ptr, ptr %26, align 8
  %28 = tail call noundef ptr %27(ptr noundef nonnull align 8 dereferenceable(56) %24, i64 noundef %1) #15
  %.not.i.i.i = icmp eq ptr %28, null
  br i1 %.not.i.i.i, label %_ZN8PSOldGen21cas_allocate_noexpandEm.exit.i.i, label %29

29:                                               ; preds = %23
  %30 = getelementptr inbounds ptr, ptr %28, i64 %1
  %31 = load i32, ptr @_ZN9CardTable10_card_sizeE, align 4
  %32 = ptrtoint ptr %28 to i64
  %33 = add i32 %31, -1
  %34 = zext i32 %33 to i64
  %35 = add i64 %34, %32
  %36 = xor i64 %34, -1
  %37 = and i64 %35, %36
  %38 = inttoptr i64 %37 to ptr
  %39 = icmp ugt ptr %30, %38
  br i1 %39, label %40, label %43

40:                                               ; preds = %29
  %41 = getelementptr inbounds i8, ptr %21, i64 16
  tail call void @_ZN16ObjectStartArray21update_for_block_workEPP12HeapWordImplS2_(ptr noundef nonnull align 8 dereferenceable(72) %41, ptr noundef nonnull %28, ptr noundef nonnull %30) #15
  br label %43

_ZN8PSOldGen21cas_allocate_noexpandEm.exit.i.i:   ; preds = %23
  %42 = tail call noundef zeroext i1 @_ZN8PSOldGen19expand_for_allocateEm(ptr noundef nonnull align 8 dereferenceable(128) %21, i64 noundef %1) #15
  br i1 %42, label %23, label %_ZN20ParallelScavengeHeap27allocate_old_gen_and_recordEm.exit, !llvm.loop !14

43:                                               ; preds = %40, %29
  %44 = load ptr, ptr @_ZN20ParallelScavengeHeap12_size_policyE, align 8
  %45 = shl i64 %1, 3
  %46 = getelementptr inbounds i8, ptr %44, i64 120
  %47 = load ptr, ptr %46, align 8
  %48 = uitofp i64 %45 to float
  tail call void @_ZN30AdaptivePaddedNoZeroDevAverage6sampleEf(ptr noundef nonnull align 4 dereferenceable(32) %47, float noundef %48) #15
  br label %_ZN20ParallelScavengeHeap27allocate_old_gen_and_recordEm.exit

_ZN20ParallelScavengeHeap27allocate_old_gen_and_recordEm.exit: ; preds = %_ZN8PSOldGen21cas_allocate_noexpandEm.exit.i.i, %15, %43, %_ZN8GCLocker22is_active_and_needs_gcEv.exit
  %.0 = phi ptr [ null, %_ZN8GCLocker22is_active_and_needs_gcEv.exit ], [ %28, %43 ], [ null, %15 ], [ null, %_ZN8PSOldGen21cas_allocate_noexpandEm.exit.i.i ]
  ret ptr %.0
}